target datalayout = "e-m:e-p270:32:32-p271:32:32-p272:64:64-i64:64-i128:128-f80:128-n8:16:32:64-S128"
target triple = "x86_64-pc-linux-gnu"

%"class.pxrInternal_v0_24__pxrReserved__::TfStaticData.35" = type { %"struct.std::atomic.36" }
%"struct.std::atomic.36" = type { %"struct.std::__atomic_base.37" }
%"struct.std::__atomic_base.37" = type { ptr }
%"struct.std::_Rb_tree_header" = type { %"struct.std::_Rb_tree_node_base", i64 }
%"struct.std::_Rb_tree_node_base" = type { i32, ptr, ptr, ptr }
%"class.std::set.166" = type { %"class.std::_Rb_tree.167" }
%"class.std::_Rb_tree.167" = type { %"struct.std::_Rb_tree<std::__cxx11::basic_string<char>, std::__cxx11::basic_string<char>, std::_Identity<std::__cxx11::basic_string<char>>, std::less<std::__cxx11::basic_string<char>>>::_Rb_tree_impl" }
%"struct.std::_Rb_tree<std::__cxx11::basic_string<char>, std::__cxx11::basic_string<char>, std::_Identity<std::__cxx11::basic_string<char>>, std::less<std::__cxx11::basic_string<char>>>::_Rb_tree_impl" = type { [8 x i8], %"struct.std::_Rb_tree_header" }

@_ZN32pxrInternal_v0_24__pxrReserved__L19_FileFormatRegistryE = internal global %"class.pxrInternal_v0_24__pxrReserved__::TfStaticData.35" zeroinitializer, align 8

; Function Attrs: noreturn nounwind uwtable
define linkonce_odr hidden void @__clang_call_terminate(ptr noundef %0) #11 comdat {
  %2 = call ptr @__cxa_begin_catch(ptr %0) #7
  call void @_ZSt9terminatev() #14
  unreachable
}

; Function Attrs: mustprogress nounwind uwtable
define linkonce_odr noundef i32 @_ZStorSt12memory_orderSt23__memory_order_modifier(i32 noundef %0, i32 noundef %1) #2 comdat {
  %3 = alloca i32, align 4
  %4 = alloca i32, align 4
  store i32 %0, ptr %3, align 4
  store i32 %1, ptr %4, align 4
  %5 = load i32, ptr %3, align 4
  %6 = load i32, ptr %4, align 4
  %7 = or i32 %5, %6
  ret i32 %7
}

; Function Attrs: mustprogress nounwind uwtable
define linkonce_odr noundef i32 @_ZSt24__cmpexch_failure_order2St12memory_order(i32 noundef %0) #2 comdat {
  %2 = alloca i32, align 4
  store i32 %0, ptr %2, align 4
  %3 = load i32, ptr %2, align 4
  %4 = icmp eq i32 %3, 4
  br i1 %4, label %5, label %6

5:                                                ; preds = %1
  br label %14

6:                                                ; preds = %1
  %7 = load i32, ptr %2, align 4
  %8 = icmp eq i32 %7, 3
  br i1 %8, label %9, label %10

9:                                                ; preds = %6
  br label %12

10:                                               ; preds = %6
  %11 = load i32, ptr %2, align 4
  br label %12

12:                                               ; preds = %10, %9
  %13 = phi i32 [ 0, %9 ], [ %11, %10 ]
  br label %14

14:                                               ; preds = %12, %5
  %15 = phi i32 [ 2, %5 ], [ %13, %12 ]
  ret i32 %15
}

; Function Attrs: mustprogress nounwind uwtable
define linkonce_odr noundef i32 @_ZSt23__cmpexch_failure_orderSt12memory_order(i32 noundef %0) #2 comdat personality ptr @__gxx_personality_v0 {
  %2 = alloca i32, align 4
  store i32 %0, ptr %2, align 4
  %3 = load i32, ptr %2, align 4
  %4 = call noundef i32 @_ZStanSt12memory_orderSt23__memory_order_modifier(i32 noundef %3, i32 noundef 65535)
  %5 = call noundef i32 @_ZSt24__cmpexch_failure_order2St12memory_order(i32 noundef %4) #7
  %6 = load i32, ptr %2, align 4
  %7 = call noundef i32 @_ZStanSt12memory_orderSt23__memory_order_modifier(i32 noundef %6, i32 noundef -65536)
  %8 = invoke noundef i32 @_ZStorSt12memory_orderSt23__memory_order_modifier(i32 noundef %5, i32 noundef %7)
          to label %9 unwind label %10

9:                                                ; preds = %1
  ret i32 %8

10:                                               ; preds = %1
  %11 = landingpad { ptr, i32 }
          catch ptr null
  %12 = extractvalue { ptr, i32 } %11, 0
  call void @__clang_call_terminate(ptr %12) #14
  unreachable
}

; Function Attrs: mustprogress nounwind uwtable
define linkonce_odr noundef i32 @_ZStanSt12memory_orderSt23__memory_order_modifier(i32 noundef %0, i32 noundef %1) #2 comdat {
  %3 = alloca i32, align 4
  %4 = alloca i32, align 4
  store i32 %0, ptr %3, align 4
  store i32 %1, ptr %4, align 4
  %5 = load i32, ptr %3, align 4
  %6 = load i32, ptr %4, align 4
  %7 = and i32 %5, %6
  ret i32 %7
}

; Function Attrs: mustprogress nounwind uwtable
define linkonce_odr noundef zeroext i1 @_ZNSt6atomicIPN32pxrInternal_v0_24__pxrReserved__22Sdf_FileFormatRegistryEE23compare_exchange_strongERS2_S2_St12memory_order(ptr noundef nonnull align 8 dereferenceable(8) %0, ptr noundef nonnull align 8 dereferenceable(8) %1, ptr noundef %2, i32 noundef %3) #2 comdat align 2 {
  %5 = alloca ptr, align 8
  %6 = alloca ptr, align 8
  %7 = alloca ptr, align 8
  %8 = alloca i32, align 4
  %9 = alloca i32, align 4
  %10 = alloca ptr, align 8
  %11 = alloca i8, align 1
  %12 = alloca ptr, align 8
  %13 = alloca ptr, align 8
  %14 = alloca ptr, align 8
  %15 = alloca i32, align 4
  store ptr %0, ptr %12, align 8
  store ptr %1, ptr %13, align 8
  store ptr %2, ptr %14, align 8
  store i32 %3, ptr %15, align 4
  %16 = load ptr, ptr %12, align 8
  %17 = getelementptr inbounds nuw %"struct.std::atomic.36", ptr %16, i32 0, i32 0
  %18 = load ptr, ptr %13, align 8
  %19 = load ptr, ptr %14, align 8
  %20 = load i32, ptr %15, align 4
  %21 = load i32, ptr %15, align 4
  %22 = call noundef i32 @_ZSt23__cmpexch_failure_orderSt12memory_order(i32 noundef %21) #7
  store ptr %17, ptr %5, align 8
  store ptr %18, ptr %6, align 8
  store ptr %19, ptr %7, align 8
  store i32 %20, ptr %8, align 4
  store i32 %22, ptr %9, align 4
  %23 = load ptr, ptr %5, align 8
  %24 = load i32, ptr %8, align 4
  %25 = load ptr, ptr %6, align 8
  %26 = load ptr, ptr %7, align 8
  store ptr %26, ptr %10, align 8
  %27 = load i32, ptr %9, align 4
  switch i32 %24, label %28 [
    i32 1, label %29
    i32 2, label %29
    i32 3, label %30
    i32 4, label %31
    i32 5, label %32
  ]

28:                                               ; preds = %4
  switch i32 %27, label %33 [
    i32 1, label %39
    i32 2, label %39
    i32 5, label %45
  ]

29:                                               ; preds = %4, %4
  switch i32 %27, label %61 [
    i32 1, label %67
    i32 2, label %67
    i32 5, label %73
  ]

30:                                               ; preds = %4
  switch i32 %27, label %89 [
    i32 1, label %95
    i32 2, label %95
    i32 5, label %101
  ]

31:                                               ; preds = %4
  switch i32 %27, label %117 [
    i32 1, label %123
    i32 2, label %123
    i32 5, label %129
  ]

32:                                               ; preds = %4
  switch i32 %27, label %145 [
    i32 1, label %151
    i32 2, label %151
    i32 5, label %157
  ]

33:                                               ; preds = %28
  %34 = load i64, ptr %25, align 8
  %35 = load i64, ptr %10, align 8
  %36 = cmpxchg ptr %23, i64 %34, i64 %35 monotonic monotonic, align 8
  %37 = extractvalue { i64, i1 } %36, 0
  %38 = extractvalue { i64, i1 } %36, 1
  br i1 %38, label %53, label %52

39:                                               ; preds = %28, %28
  %40 = load i64, ptr %25, align 8
  %41 = load i64, ptr %10, align 8
  %42 = cmpxchg ptr %23, i64 %40, i64 %41 monotonic acquire, align 8
  %43 = extractvalue { i64, i1 } %42, 0
  %44 = extractvalue { i64, i1 } %42, 1
  br i1 %44, label %56, label %55

45:                                               ; preds = %28
  %46 = load i64, ptr %25, align 8
  %47 = load i64, ptr %10, align 8
  %48 = cmpxchg ptr %23, i64 %46, i64 %47 monotonic seq_cst, align 8
  %49 = extractvalue { i64, i1 } %48, 0
  %50 = extractvalue { i64, i1 } %48, 1
  br i1 %50, label %59, label %58

51:                                               ; preds = %59, %56, %53
  br label %173

52:                                               ; preds = %33
  store i64 %37, ptr %25, align 8
  br label %53

53:                                               ; preds = %52, %33
  %54 = zext i1 %38 to i8
  store i8 %54, ptr %11, align 1
  br label %51

55:                                               ; preds = %39
  store i64 %43, ptr %25, align 8
  br label %56

56:                                               ; preds = %55, %39
  %57 = zext i1 %44 to i8
  store i8 %57, ptr %11, align 1
  br label %51

58:                                               ; preds = %45
  store i64 %49, ptr %25, align 8
  br label %59

59:                                               ; preds = %58, %45
  %60 = zext i1 %50 to i8
  store i8 %60, ptr %11, align 1
  br label %51

61:                                               ; preds = %29
  %62 = load i64, ptr %25, align 8
  %63 = load i64, ptr %10, align 8
  %64 = cmpxchg ptr %23, i64 %62, i64 %63 acquire monotonic, align 8
  %65 = extractvalue { i64, i1 } %64, 0
  %66 = extractvalue { i64, i1 } %64, 1
  br i1 %66, label %81, label %80

67:                                               ; preds = %29, %29
  %68 = load i64, ptr %25, align 8
  %69 = load i64, ptr %10, align 8
  %70 = cmpxchg ptr %23, i64 %68, i64 %69 acquire acquire, align 8
  %71 = extractvalue { i64, i1 } %70, 0
  %72 = extractvalue { i64, i1 } %70, 1
  br i1 %72, label %84, label %83

73:                                               ; preds = %29
  %74 = load i64, ptr %25, align 8
  %75 = load i64, ptr %10, align 8
  %76 = cmpxchg ptr %23, i64 %74, i64 %75 acquire seq_cst, align 8
  %77 = extractvalue { i64, i1 } %76, 0
  %78 = extractvalue { i64, i1 } %76, 1
  br i1 %78, label %87, label %86

79:                                               ; preds = %87, %84, %81
  br label %173

80:                                               ; preds = %61
  store i64 %65, ptr %25, align 8
  br label %81

81:                                               ; preds = %80, %61
  %82 = zext i1 %66 to i8
  store i8 %82, ptr %11, align 1
  br label %79

83:                                               ; preds = %67
  store i64 %71, ptr %25, align 8
  br label %84

84:                                               ; preds = %83, %67
  %85 = zext i1 %72 to i8
  store i8 %85, ptr %11, align 1
  br label %79

86:                                               ; preds = %73
  store i64 %77, ptr %25, align 8
  br label %87

87:                                               ; preds = %86, %73
  %88 = zext i1 %78 to i8
  store i8 %88, ptr %11, align 1
  br label %79

89:                                               ; preds = %30
  %90 = load i64, ptr %25, align 8
  %91 = load i64, ptr %10, align 8
  %92 = cmpxchg ptr %23, i64 %90, i64 %91 release monotonic, align 8
  %93 = extractvalue { i64, i1 } %92, 0
  %94 = extractvalue { i64, i1 } %92, 1
  br i1 %94, label %109, label %108

95:                                               ; preds = %30, %30
  %96 = load i64, ptr %25, align 8
  %97 = load i64, ptr %10, align 8
  %98 = cmpxchg ptr %23, i64 %96, i64 %97 release acquire, align 8
  %99 = extractvalue { i64, i1 } %98, 0
  %100 = extractvalue { i64, i1 } %98, 1
  br i1 %100, label %112, label %111

101:                                              ; preds = %30
  %102 = load i64, ptr %25, align 8
  %103 = load i64, ptr %10, align 8
  %104 = cmpxchg ptr %23, i64 %102, i64 %103 release seq_cst, align 8
  %105 = extractvalue { i64, i1 } %104, 0
  %106 = extractvalue { i64, i1 } %104, 1
  br i1 %106, label %115, label %114

107:                                              ; preds = %115, %112, %109
  br label %173

108:                                              ; preds = %89
  store i64 %93, ptr %25, align 8
  br label %109

109:                                              ; preds = %108, %89
  %110 = zext i1 %94 to i8
  store i8 %110, ptr %11, align 1
  br label %107

111:                                              ; preds = %95
  store i64 %99, ptr %25, align 8
  br label %112

112:                                              ; preds = %111, %95
  %113 = zext i1 %100 to i8
  store i8 %113, ptr %11, align 1
  br label %107

114:                                              ; preds = %101
  store i64 %105, ptr %25, align 8
  br label %115

115:                                              ; preds = %114, %101
  %116 = zext i1 %106 to i8
  store i8 %116, ptr %11, align 1
  br label %107

117:                                              ; preds = %31
  %118 = load i64, ptr %25, align 8
  %119 = load i64, ptr %10, align 8
  %120 = cmpxchg ptr %23, i64 %118, i64 %119 acq_rel monotonic, align 8
  %121 = extractvalue { i64, i1 } %120, 0
  %122 = extractvalue { i64, i1 } %120, 1
  br i1 %122, label %137, label %136

123:                                              ; preds = %31, %31
  %124 = load i64, ptr %25, align 8
  %125 = load i64, ptr %10, align 8
  %126 = cmpxchg ptr %23, i64 %124, i64 %125 acq_rel acquire, align 8
  %127 = extractvalue { i64, i1 } %126, 0
  %128 = extractvalue { i64, i1 } %126, 1
  br i1 %128, label %140, label %139

129:                                              ; preds = %31
  %130 = load i64, ptr %25, align 8
  %131 = load i64, ptr %10, align 8
  %132 = cmpxchg ptr %23, i64 %130, i64 %131 acq_rel seq_cst, align 8
  %133 = extractvalue { i64, i1 } %132, 0
  %134 = extractvalue { i64, i1 } %132, 1
  br i1 %134, label %143, label %142

135:                                              ; preds = %143, %140, %137
  br label %173

136:                                              ; preds = %117
  store i64 %121, ptr %25, align 8
  br label %137

137:                                              ; preds = %136, %117
  %138 = zext i1 %122 to i8
  store i8 %138, ptr %11, align 1
  br label %135

139:                                              ; preds = %123
  store i64 %127, ptr %25, align 8
  br label %140

140:                                              ; preds = %139, %123
  %141 = zext i1 %128 to i8
  store i8 %141, ptr %11, align 1
  br label %135

142:                                              ; preds = %129
  store i64 %133, ptr %25, align 8
  br label %143

143:                                              ; preds = %142, %129
  %144 = zext i1 %134 to i8
  store i8 %144, ptr %11, align 1
  br label %135

145:                                              ; preds = %32
  %146 = load i64, ptr %25, align 8
  %147 = load i64, ptr %10, align 8
  %148 = cmpxchg ptr %23, i64 %146, i64 %147 seq_cst monotonic, align 8
  %149 = extractvalue { i64, i1 } %148, 0
  %150 = extractvalue { i64, i1 } %148, 1
  br i1 %150, label %165, label %164

151:                                              ; preds = %32, %32
  %152 = load i64, ptr %25, align 8
  %153 = load i64, ptr %10, align 8
  %154 = cmpxchg ptr %23, i64 %152, i64 %153 seq_cst acquire, align 8
  %155 = extractvalue { i64, i1 } %154, 0
  %156 = extractvalue { i64, i1 } %154, 1
  br i1 %156, label %168, label %167

157:                                              ; preds = %32
  %158 = load i64, ptr %25, align 8
  %159 = load i64, ptr %10, align 8
  %160 = cmpxchg ptr %23, i64 %158, i64 %159 seq_cst seq_cst, align 8
  %161 = extractvalue { i64, i1 } %160, 0
  %162 = extractvalue { i64, i1 } %160, 1
  br i1 %162, label %171, label %170

163:                                              ; preds = %171, %168, %165
  br label %173

164:                                              ; preds = %145
  store i64 %149, ptr %25, align 8
  br label %165

165:                                              ; preds = %164, %145
  %166 = zext i1 %150 to i8
  store i8 %166, ptr %11, align 1
  br label %163

167:                                              ; preds = %151
  store i64 %155, ptr %25, align 8
  br label %168

168:                                              ; preds = %167, %151
  %169 = zext i1 %156 to i8
  store i8 %169, ptr %11, align 1
  br label %163

170:                                              ; preds = %157
  store i64 %161, ptr %25, align 8
  br label %171

171:                                              ; preds = %170, %157
  %172 = zext i1 %162 to i8
  store i8 %172, ptr %11, align 1
  br label %163

173:                                              ; preds = %163, %135, %107, %79, %51
  %174 = load i8, ptr %11, align 1
  %175 = trunc i8 %174 to i1
  ret i1 %175
}

; Function Attrs: mustprogress uwtable
define linkonce_odr noundef ptr @_ZN32pxrInternal_v0_24__pxrReserved__27Tf_StaticDataDefaultFactoryINS_22Sdf_FileFormatRegistryEE3NewEv() #0 comdat align 2 personality ptr @__gxx_personality_v0 {
  %1 = alloca ptr, align 8
  %2 = alloca i32, align 4
  %3 = call noalias noundef nonnull ptr @_Znwm(i64 noundef 216) #15
  invoke void @_ZN32pxrInternal_v0_24__pxrReserved__22Sdf_FileFormatRegistryC1Ev(ptr noundef nonnull align 8 dereferenceable(216) %3)
          to label %4 unwind label %5

4:                                                ; preds = %0
  ret ptr %3

5:                                                ; preds = %0
  %6 = landingpad { ptr, i32 }
          cleanup
  %7 = extractvalue { ptr, i32 } %6, 0
  store ptr %7, ptr %1, align 8
  %8 = extractvalue { ptr, i32 } %6, 1
  store i32 %8, ptr %2, align 4
  call void @_ZdlPvm(ptr noundef %3, i64 noundef 216) #16
  br label %9

9:                                                ; preds = %5
  %10 = load ptr, ptr %1, align 8
  %11 = load i32, ptr %2, align 4
  %12 = insertvalue { ptr, i32 } poison, ptr %10, 0
  %13 = insertvalue { ptr, i32 } %12, i32 %11, 1
  resume { ptr, i32 } %13
}

; Function Attrs: mustprogress nounwind uwtable
define linkonce_odr noundef ptr @_ZNKSt13__atomic_baseIPN32pxrInternal_v0_24__pxrReserved__22Sdf_FileFormatRegistryEEcvS2_Ev(ptr noundef nonnull align 8 dereferenceable(8) %0) #2 comdat align 2 {
  %2 = alloca ptr, align 8
  %3 = alloca i32, align 4
  %4 = alloca i32, align 4
  %5 = alloca ptr, align 8
  %6 = alloca ptr, align 8
  store ptr %0, ptr %6, align 8
  %7 = load ptr, ptr %6, align 8
  store ptr %7, ptr %2, align 8
  store i32 5, ptr %3, align 4
  %8 = load ptr, ptr %2, align 8
  %9 = load i32, ptr %3, align 4
  %10 = call noundef i32 @_ZStanSt12memory_orderSt23__memory_order_modifier(i32 noundef %9, i32 noundef 65535)
  store i32 %10, ptr %4, align 4
  %11 = load i32, ptr %3, align 4
  switch i32 %11, label %12 [
    i32 1, label %14
    i32 2, label %14
    i32 5, label %16
  ]

12:                                               ; preds = %1
  %13 = load atomic i64, ptr %8 monotonic, align 8
  store i64 %13, ptr %5, align 8
  br label %18

14:                                               ; preds = %1, %1
  %15 = load atomic i64, ptr %8 acquire, align 8
  store i64 %15, ptr %5, align 8
  br label %18

16:                                               ; preds = %1
  %17 = load atomic i64, ptr %8 seq_cst, align 8
  store i64 %17, ptr %5, align 8
  br label %18

18:                                               ; preds = %16, %14, %12
  %19 = load ptr, ptr %5, align 8
  ret ptr %19
}

; Function Attrs: mustprogress uwtable
define linkonce_odr noundef ptr @_ZNK32pxrInternal_v0_24__pxrReserved__12TfStaticDataINS_22Sdf_FileFormatRegistryENS_27Tf_StaticDataDefaultFactoryIS1_EEE16_TryToCreateDataEv(ptr noundef nonnull align 8 dereferenceable(8) %0) #0 comdat align 2 {
  %2 = alloca ptr, align 8
  %3 = alloca ptr, align 8
  %4 = alloca ptr, align 8
  %5 = alloca ptr, align 8
  store ptr %0, ptr %3, align 8
  %6 = load ptr, ptr %3, align 8
  %7 = call noundef ptr @_ZN32pxrInternal_v0_24__pxrReserved__27Tf_StaticDataDefaultFactoryINS_22Sdf_FileFormatRegistryEE3NewEv()
  store ptr %7, ptr %4, align 8
  store ptr null, ptr %5, align 8
  %8 = getelementptr inbounds nuw %"class.pxrInternal_v0_24__pxrReserved__::TfStaticData.35", ptr %6, i32 0, i32 0
  %9 = load ptr, ptr %4, align 8
  %10 = call noundef zeroext i1 @_ZNSt6atomicIPN32pxrInternal_v0_24__pxrReserved__22Sdf_FileFormatRegistryEE23compare_exchange_strongERS2_S2_St12memory_order(ptr noundef nonnull align 8 dereferenceable(8) %8, ptr noundef nonnull align 8 dereferenceable(8) %5, ptr noundef %9, i32 noundef 5) #7
  br i1 %10, label %11, label %13

11:                                               ; preds = %1
  %12 = load ptr, ptr %4, align 8
  store ptr %12, ptr %2, align 8
  br label %20

13:                                               ; preds = %1
  %14 = load ptr, ptr %4, align 8
  %15 = icmp eq ptr %14, null
  br i1 %15, label %17, label %16

16:                                               ; preds = %13
  call void @_ZN32pxrInternal_v0_24__pxrReserved__22Sdf_FileFormatRegistryD2Ev(ptr noundef nonnull align 8 dereferenceable(216) %14) #7
  call void @_ZdlPvm(ptr noundef %14, i64 noundef 216) #16
  br label %17

17:                                               ; preds = %16, %13
  %18 = getelementptr inbounds nuw %"class.pxrInternal_v0_24__pxrReserved__::TfStaticData.35", ptr %6, i32 0, i32 0
  %19 = call noundef ptr @_ZNKSt6atomicIPN32pxrInternal_v0_24__pxrReserved__22Sdf_FileFormatRegistryEEcvS2_Ev(ptr noundef nonnull align 8 dereferenceable(8) %18) #7
  store ptr %19, ptr %2, align 8
  br label %20

20:                                               ; preds = %17, %11
  %21 = load ptr, ptr %2, align 8
  ret ptr %21
}

; Function Attrs: mustprogress nounwind uwtable
define linkonce_odr noundef ptr @_ZNKSt6atomicIPN32pxrInternal_v0_24__pxrReserved__22Sdf_FileFormatRegistryEEcvS2_Ev(ptr noundef nonnull align 8 dereferenceable(8) %0) #2 comdat align 2 {
  %2 = alloca ptr, align 8
  store ptr %0, ptr %2, align 8
  %3 = load ptr, ptr %2, align 8
  %4 = getelementptr inbounds nuw %"struct.std::atomic.36", ptr %3, i32 0, i32 0
  %5 = call noundef ptr @_ZNKSt13__atomic_baseIPN32pxrInternal_v0_24__pxrReserved__22Sdf_FileFormatRegistryEEcvS2_Ev(ptr noundef nonnull align 8 dereferenceable(8) %4) #7
  ret ptr %5
}

; Function Attrs: mustprogress uwtable
define linkonce_odr noundef ptr @_ZNK32pxrInternal_v0_24__pxrReserved__12TfStaticDataINS_22Sdf_FileFormatRegistryENS_27Tf_StaticDataDefaultFactoryIS1_EEE3GetEv(ptr noundef nonnull align 8 dereferenceable(8) %0) #0 comdat align 2 {
  %2 = alloca ptr, align 8
  %3 = alloca ptr, align 8
  store ptr %0, ptr %2, align 8
  %4 = load ptr, ptr %2, align 8
  %5 = getelementptr inbounds nuw %"class.pxrInternal_v0_24__pxrReserved__::TfStaticData.35", ptr %4, i32 0, i32 0
  %6 = call noundef ptr @_ZNKSt6atomicIPN32pxrInternal_v0_24__pxrReserved__22Sdf_FileFormatRegistryEEcvS2_Ev(ptr noundef nonnull align 8 dereferenceable(8) %5) #7
  store ptr %6, ptr %3, align 8
  %7 = load ptr, ptr %3, align 8
  %8 = icmp ne ptr %7, null
  br i1 %8, label %9, label %11

9:                                                ; preds = %1
  %10 = load ptr, ptr %3, align 8
  br label %13

11:                                               ; preds = %1
  %12 = call noundef ptr @_ZNK32pxrInternal_v0_24__pxrReserved__12TfStaticDataINS_22Sdf_FileFormatRegistryENS_27Tf_StaticDataDefaultFactoryIS1_EEE16_TryToCreateDataEv(ptr noundef nonnull align 8 dereferenceable(8) %4)
  br label %13

13:                                               ; preds = %11, %9
  %14 = phi ptr [ %10, %9 ], [ %12, %11 ]
  ret ptr %14
}

; Function Attrs: mustprogress uwtable
define linkonce_odr noundef ptr @_ZNK32pxrInternal_v0_24__pxrReserved__12TfStaticDataINS_22Sdf_FileFormatRegistryENS_27Tf_StaticDataDefaultFactoryIS1_EEEptEv(ptr noundef nonnull align 8 dereferenceable(8) %0) #0 comdat align 2 {
  %2 = alloca ptr, align 8
  store ptr %0, ptr %2, align 8
  %3 = load ptr, ptr %2, align 8
  %4 = call noundef ptr @_ZNK32pxrInternal_v0_24__pxrReserved__12TfStaticDataINS_22Sdf_FileFormatRegistryENS_27Tf_StaticDataDefaultFactoryIS1_EEE3GetEv(ptr noundef nonnull align 8 dereferenceable(8) %3)
  ret ptr %4
}

; Function Attrs: mustprogress uwtable
define void @_ZN32pxrInternal_v0_24__pxrReserved__13SdfFileFormat27FindAllFileFormatExtensionsB5cxx11Ev(ptr dead_on_unwind noalias writable sret(%"class.std::set.166") align 8 %0) #0 align 2 {
  %2 = alloca ptr, align 8
  store ptr %0, ptr %2, align 8
  %3 = call noundef ptr @_ZNK32pxrInternal_v0_24__pxrReserved__12TfStaticDataINS_22Sdf_FileFormatRegistryENS_27Tf_StaticDataDefaultFactoryIS1_EEEptEv(ptr noundef nonnull align 8 dereferenceable(8) @_ZN32pxrInternal_v0_24__pxrReserved__L19_FileFormatRegistryE)
  call void @_ZN32pxrInternal_v0_24__pxrReserved__22Sdf_FileFormatRegistry27FindAllFileFormatExtensionsB5cxx11Ev(ptr dead_on_unwind writable sret(%"class.std::set.166") align 8 %0, ptr noundef nonnull align 8 dereferenceable(216) %3)
  ret void
}