; Function Attrs: mustprogress uwtable
define void @_ZN32pxrInternal_v0_24__pxrReserved__13SdfFileFormat27FindAllFileFormatExtensionsB5cxx11Ev(ptr dead_on_unwind noalias writable sret(%"class.std::set.166") align 8 %0) local_unnamed_addr #0 align 2 personality ptr @__gxx_personality_v0 {
  %2 = load atomic i64, ptr @_ZN32pxrInternal_v0_24__pxrReserved__L19_FileFormatRegistryE seq_cst, align 8
  %3 = inttoptr i64 %2 to ptr
  %.not.i.i = icmp eq i64 %2, 0
  br i1 %.not.i.i, label %4, label %_ZNK32pxrInternal_v0_24__pxrReserved__12TfStaticDataINS_22Sdf_FileFormatRegistryENS_27Tf_StaticDataDefaultFactoryIS1_EEEptEv.exit

4:                                                ; preds = %1
  %5 = tail call noalias noundef nonnull dereferenceable(216) ptr @_Znwm(i64 noundef 216) #23
  invoke void @_ZN32pxrInternal_v0_24__pxrReserved__22Sdf_FileFormatRegistryC1Ev(ptr noundef nonnull align 8 dereferenceable(216) %5)
          to label %_ZN32pxrInternal_v0_24__pxrReserved__27Tf_StaticDataDefaultFactoryINS_22Sdf_FileFormatRegistryEE3NewEv.exit.i.i.i unwind label %6

6:                                                ; preds = %4
  %7 = landingpad { ptr, i32 }
          cleanup
  tail call void @_ZdlPvm(ptr noundef nonnull %5, i64 noundef 216) #22
  resume { ptr, i32 } %7

_ZN32pxrInternal_v0_24__pxrReserved__27Tf_StaticDataDefaultFactoryINS_22Sdf_FileFormatRegistryEE3NewEv.exit.i.i.i: ; preds = %4
  %8 = ptrtoint ptr %5 to i64
  %9 = cmpxchg ptr @_ZN32pxrInternal_v0_24__pxrReserved__L19_FileFormatRegistryE, i64 0, i64 %8 seq_cst seq_cst, align 8
  %10 = extractvalue { i64, i1 } %9, 1
  br i1 %10, label %_ZNK32pxrInternal_v0_24__pxrReserved__12TfStaticDataINS_22Sdf_FileFormatRegistryENS_27Tf_StaticDataDefaultFactoryIS1_EEEptEv.exit, label %11

11:                                               ; preds = %_ZN32pxrInternal_v0_24__pxrReserved__27Tf_StaticDataDefaultFactoryINS_22Sdf_FileFormatRegistryEE3NewEv.exit.i.i.i
  tail call void @_ZN32pxrInternal_v0_24__pxrReserved__22Sdf_FileFormatRegistryD2Ev(ptr noundef nonnull align 8 dereferenceable(216) %5) #24
  tail call void @_ZdlPvm(ptr noundef nonnull %5, i64 noundef 216) #22
  %12 = load atomic i64, ptr @_ZN32pxrInternal_v0_24__pxrReserved__L19_FileFormatRegistryE seq_cst, align 8
  %13 = inttoptr i64 %12 to ptr
  br label %_ZNK32pxrInternal_v0_24__pxrReserved__12TfStaticDataINS_22Sdf_FileFormatRegistryENS_27Tf_StaticDataDefaultFactoryIS1_EEEptEv.exit

_ZNK32pxrInternal_v0_24__pxrReserved__12TfStaticDataINS_22Sdf_FileFormatRegistryENS_27Tf_StaticDataDefaultFactoryIS1_EEEptEv.exit: ; preds = %1, %_ZN32pxrInternal_v0_24__pxrReserved__27Tf_StaticDataDefaultFactoryINS_22Sdf_FileFormatRegistryEE3NewEv.exit.i.i.i, %11
  %14 = phi ptr [ %3, %1 ], [ %13, %11 ], [ %5, %_ZN32pxrInternal_v0_24__pxrReserved__27Tf_StaticDataDefaultFactoryINS_22Sdf_FileFormatRegistryEE3NewEv.exit.i.i.i ]
  tail call void @_ZN32pxrInternal_v0_24__pxrReserved__22Sdf_FileFormatRegistry27FindAllFileFormatExtensionsB5cxx11Ev(ptr dead_on_unwind writable sret(%"class.std::set.166") align 8 %0, ptr noundef nonnull align 8 dereferenceable(216) %14)
  ret void
}